; ModuleID = 'source-C-CXX/22/192.c'
source_filename = "source-C-CXX/22/192.c"
target datalayout = "e-m:e-p270:32:32-p271:32:32-p272:64:64-i64:64-f80:128-n8:16:32:64-S128"
target triple = "x86_64-pc-linux-gnu"

%struct._IO_FILE = type { i32, i8*, i8*, i8*, i8*, i8*, i8*, i8*, i8*, i8*, i8*, i8*, %struct._IO_marker*, %struct._IO_FILE*, i32, i32, i64, i16, i8, [1 x i8], i8*, i64, %struct._IO_codecvt*, %struct._IO_wide_data*, %struct._IO_FILE*, i8*, i64, i32, [20 x i8] }
%struct._IO_marker = type opaque
%struct._IO_codecvt = type opaque
%struct._IO_wide_data = type opaque

@stdin = external local_unnamed_addr global %struct._IO_FILE*, align 8

; Function Attrs: nounwind sspstrong uwtable
define dso_local i32 @main() local_unnamed_addr #0 {
  %1 = alloca [100 x i8], align 16
  %2 = getelementptr inbounds [100 x i8], [100 x i8]* %1, i64 0, i64 0
  call void @llvm.lifetime.start.p0i8(i64 100, i8* nonnull %2) #6
  %3 = call i32 (i8*, ...) bitcast (i32 (...)* @gets to i32 (i8*, ...)*)(i8* nonnull %2) #6
  %4 = call i64 @strlen(i8* noundef nonnull %2) #7
  %5 = trunc i64 %4 to i32
  %6 = icmp sgt i32 %5, 0
  br i1 %6, label %7, label %52

7:                                                ; preds = %0
  %8 = shl i64 %4, 32
  %9 = ashr exact i64 %8, 32
  %10 = and i64 %4, 4294967295
  br label %14

11:                                               ; preds = %37
  br i1 %6, label %12, label %52

12:                                               ; preds = %11
  %13 = and i64 %4, 4294967295
  br label %42

14:                                               ; preds = %7, %37
  %15 = phi i64 [ %10, %7 ], [ %41, %37 ]
  %16 = phi i64 [ %9, %7 ], [ %40, %37 ]
  %17 = phi i32 [ %5, %7 ], [ %38, %37 ]
  %18 = phi i32 [ %5, %7 ], [ %19, %37 ]
  %19 = add nsw i32 %18, -1
  %20 = zext i32 %19 to i64
  %21 = getelementptr inbounds [100 x i8], [100 x i8]* %1, i64 0, i64 %20
  %22 = load i8, i8* %21, align 1, !tbaa !5
  %23 = icmp eq i8 %22, 32
  br i1 %23, label %24, label %37

24:                                               ; preds = %14
  %25 = sext i32 %17 to i64
  %26 = icmp slt i64 %15, %25
  br i1 %26, label %27, label %35

27:                                               ; preds = %24, %27
  %28 = phi i64 [ %33, %27 ], [ %16, %24 ]
  %29 = getelementptr inbounds [100 x i8], [100 x i8]* %1, i64 0, i64 %28
  %30 = load i8, i8* %29, align 1, !tbaa !5
  %31 = sext i8 %30 to i32
  %32 = call i32 @putchar(i32 %31)
  %33 = add nsw i64 %28, 1
  %34 = icmp slt i64 %33, %25
  br i1 %34, label %27, label %35, !llvm.loop !8

35:                                               ; preds = %27, %24
  %36 = call i32 @putchar(i32 32)
  br label %37

37:                                               ; preds = %14, %35
  %38 = phi i32 [ %19, %35 ], [ %17, %14 ]
  %39 = icmp sgt i64 %15, 1
  %40 = add nsw i64 %16, -1
  %41 = add nsw i64 %15, -1
  br i1 %39, label %14, label %11, !llvm.loop !10

42:                                               ; preds = %12, %47
  %43 = phi i64 [ 0, %12 ], [ %50, %47 ]
  %44 = getelementptr inbounds [100 x i8], [100 x i8]* %1, i64 0, i64 %43
  %45 = load i8, i8* %44, align 1, !tbaa !5
  %46 = icmp eq i8 %45, 32
  br i1 %46, label %52, label %47

47:                                               ; preds = %42
  %48 = sext i8 %45 to i32
  %49 = call i32 @putchar(i32 %48)
  %50 = add nuw nsw i64 %43, 1
  %51 = icmp eq i64 %50, %13
  br i1 %51, label %52, label %42, !llvm.loop !11

52:                                               ; preds = %47, %42, %0, %11
  %53 = load %struct._IO_FILE*, %struct._IO_FILE** @stdin, align 8, !tbaa !12
  %54 = call i32 @getc(%struct._IO_FILE* %53) #6
  %55 = load %struct._IO_FILE*, %struct._IO_FILE** @stdin, align 8, !tbaa !12
  %56 = call i32 @getc(%struct._IO_FILE* %55) #6
  call void @llvm.lifetime.end.p0i8(i64 100, i8* nonnull %2) #6
  ret i32 0
}

; Function Attrs: argmemonly mustprogress nofree nosync nounwind willreturn
declare void @llvm.lifetime.start.p0i8(i64 immarg, i8* nocapture) #1

declare i32 @gets(...) local_unnamed_addr #2

; Function Attrs: argmemonly mustprogress nofree nounwind readonly willreturn
declare i64 @strlen(i8* nocapture) local_unnamed_addr #3

; Function Attrs: argmemonly mustprogress nofree nosync nounwind willreturn
declare void @llvm.lifetime.end.p0i8(i64 immarg, i8* nocapture) #1

; Function Attrs: nofree nounwind
declare noundef i32 @getc(%struct._IO_FILE* nocapture noundef) local_unnamed_addr #4

; Function Attrs: nofree nounwind
declare noundef i32 @putchar(i32 noundef) local_unnamed_addr #5


!llvm.module.flags = !{!0, !1, !2, !3}
!llvm.ident = !{!4}

!0 = !{i32 1, !"wchar_size", i32 4}
!1 = !{i32 7, !"PIC Level", i32 2}
!2 = !{i32 7, !"PIE Level", i32 2}
!3 = !{i32 7, !"uwtable", i32 1}
!4 = !{!"clang version 13.0.0"}
!5 = !{!6, !6, i64 0}
!6 = !{!"omnipotent char", !7, i64 0}
!7 = !{!"Simple C/C++ TBAA"}
!8 = distinct !{!8, !9}
!9 = !{!"llvm.loop.mustprogress"}
!10 = distinct !{!10, !9}
!11 = distinct !{!11, !9}
!12 = !{!13, !13, i64 0}
!13 = !{!"any pointer", !6, i64 0}
